target datalayout = "e-m:e-p270:32:32-p271:32:32-p272:64:64-i64:64-i128:128-f80:128-n8:16:32:64-S128"
target triple = "x86_64-pc-linux-gnu"

@.str.24 = private unnamed_addr constant [28 x i8] c"../openssl/test/test_test.c\00", align 1
@stderr = external global ptr, align 8
@.str.47 = private unnamed_addr constant [19 x i8] c"# FATAL: %s != %d\0A\00", align 1
@.str.206 = private unnamed_addr constant [13 x i8] c"TEST_ptr(&y)\00", align 1
@.str.207 = private unnamed_addr constant [3 x i8] c"&y\00", align 1
@.str.208 = private unnamed_addr constant [15 x i8] c"TEST_ptr(NULL)\00", align 1
@.str.209 = private unnamed_addr constant [5 x i8] c"NULL\00", align 1
@.str.210 = private unnamed_addr constant [18 x i8] c"TEST_ptr_null(&y)\00", align 1
@.str.211 = private unnamed_addr constant [20 x i8] c"TEST_ptr_null(NULL)\00", align 1
@.str.212 = private unnamed_addr constant [24 x i8] c"TEST_ptr_eq(NULL, NULL)\00", align 1
@.str.213 = private unnamed_addr constant [22 x i8] c"TEST_ptr_eq(NULL, &y)\00", align 1
@.str.214 = private unnamed_addr constant [22 x i8] c"TEST_ptr_eq(&y, NULL)\00", align 1
@.str.215 = private unnamed_addr constant [20 x i8] c"TEST_ptr_eq(&y, &x)\00", align 1
@.str.216 = private unnamed_addr constant [3 x i8] c"&x\00", align 1
@.str.217 = private unnamed_addr constant [20 x i8] c"TEST_ptr_eq(&x, &x)\00", align 1
@.str.218 = private unnamed_addr constant [24 x i8] c"TEST_ptr_ne(NULL, NULL)\00", align 1
@.str.219 = private unnamed_addr constant [22 x i8] c"TEST_ptr_ne(NULL, &y)\00", align 1
@.str.220 = private unnamed_addr constant [22 x i8] c"TEST_ptr_ne(&y, NULL)\00", align 1
@.str.221 = private unnamed_addr constant [20 x i8] c"TEST_ptr_ne(&y, &x)\00", align 1
@.str.222 = private unnamed_addr constant [20 x i8] c"TEST_ptr_ne(&x, &x)\00", align 1

; Function Attrs: nounwind uwtable
define internal i32 @test_case(i32 noundef %0, ptr noundef %1, i32 noundef %2) #0 {
  %4 = alloca i32, align 4
  %5 = alloca i32, align 4
  %6 = alloca ptr, align 8
  %7 = alloca i32, align 4
  store i32 %0, ptr %5, align 4, !tbaa !4
  store ptr %1, ptr %6, align 8, !tbaa !9
  store i32 %2, ptr %7, align 4, !tbaa !4
  %8 = load i32, ptr %7, align 4, !tbaa !4
  %9 = load i32, ptr %5, align 4, !tbaa !4
  %10 = icmp ne i32 %8, %9
  br i1 %10, label %11, label %16

11:                                               ; preds = %3
  %12 = load ptr, ptr @stderr, align 8, !tbaa !16
  %13 = load ptr, ptr %6, align 8, !tbaa !9
  %14 = load i32, ptr %5, align 4, !tbaa !4
  %15 = call i32 (ptr, ptr, ...) @fprintf(ptr noundef %12, ptr noundef @.str.47, ptr noundef %13, i32 noundef %14) #7
  store i32 0, ptr %4, align 4
  br label %17

16:                                               ; preds = %3
  store i32 1, ptr %4, align 4
  br label %17

17:                                               ; preds = %16, %11
  %18 = load i32, ptr %4, align 4
  ret i32 %18
}

; Function Attrs: nounwind uwtable
define internal i32 @test_pointer() #0 {
  %1 = alloca i32, align 4
  %2 = alloca i32, align 4
  %3 = alloca i8, align 1
  %4 = alloca i32, align 4
  call void @llvm.lifetime.start.p0(i64 4, ptr %2) #7
  store i32 0, ptr %2, align 4, !tbaa !4
  call void @llvm.lifetime.start.p0(i64 1, ptr %3) #7
  store i8 1, ptr %3, align 1, !tbaa !8
  %5 = call i32 @test_ptr(ptr noundef @.str.24, i32 noundef 222, ptr noundef @.str.207, ptr noundef %3)
  %6 = call i32 @test_case(i32 noundef 1, ptr noundef @.str.206, i32 noundef %5)
  %7 = icmp ne i32 %6, 0
  br i1 %7, label %8, label %60

8:                                                ; preds = %0
  %9 = call i32 @test_ptr(ptr noundef @.str.24, i32 noundef 223, ptr noundef @.str.209, ptr noundef null)
  %10 = call i32 @test_case(i32 noundef 0, ptr noundef @.str.208, i32 noundef %9)
  %11 = icmp ne i32 %10, 0
  br i1 %11, label %12, label %60

12:                                               ; preds = %8
  %13 = call i32 @test_ptr_null(ptr noundef @.str.24, i32 noundef 224, ptr noundef @.str.207, ptr noundef %3)
  %14 = call i32 @test_case(i32 noundef 0, ptr noundef @.str.210, i32 noundef %13)
  %15 = icmp ne i32 %14, 0
  br i1 %15, label %16, label %60

16:                                               ; preds = %12
  %17 = call i32 @test_ptr_null(ptr noundef @.str.24, i32 noundef 225, ptr noundef @.str.209, ptr noundef null)
  %18 = call i32 @test_case(i32 noundef 1, ptr noundef @.str.211, i32 noundef %17)
  %19 = icmp ne i32 %18, 0
  br i1 %19, label %20, label %60

20:                                               ; preds = %16
  %21 = call i32 @test_ptr_eq(ptr noundef @.str.24, i32 noundef 226, ptr noundef @.str.209, ptr noundef @.str.209, ptr noundef null, ptr noundef null)
  %22 = call i32 @test_case(i32 noundef 1, ptr noundef @.str.212, i32 noundef %21)
  %23 = icmp ne i32 %22, 0
  br i1 %23, label %24, label %60

24:                                               ; preds = %20
  %25 = call i32 @test_ptr_eq(ptr noundef @.str.24, i32 noundef 227, ptr noundef @.str.209, ptr noundef @.str.207, ptr noundef null, ptr noundef %3)
  %26 = call i32 @test_case(i32 noundef 0, ptr noundef @.str.213, i32 noundef %25)
  %27 = icmp ne i32 %26, 0
  br i1 %27, label %28, label %60

28:                                               ; preds = %24
  %29 = call i32 @test_ptr_eq(ptr noundef @.str.24, i32 noundef 228, ptr noundef @.str.207, ptr noundef @.str.209, ptr noundef %3, ptr noundef null)
  %30 = call i32 @test_case(i32 noundef 0, ptr noundef @.str.214, i32 noundef %29)
  %31 = icmp ne i32 %30, 0
  br i1 %31, label %32, label %60

32:                                               ; preds = %28
  %33 = call i32 @test_ptr_eq(ptr noundef @.str.24, i32 noundef 229, ptr noundef @.str.207, ptr noundef @.str.216, ptr noundef %3, ptr noundef %2)
  %34 = call i32 @test_case(i32 noundef 0, ptr noundef @.str.215, i32 noundef %33)
  %35 = icmp ne i32 %34, 0
  br i1 %35, label %36, label %60

36:                                               ; preds = %32
  %37 = call i32 @test_ptr_eq(ptr noundef @.str.24, i32 noundef 230, ptr noundef @.str.216, ptr noundef @.str.216, ptr noundef %2, ptr noundef %2)
  %38 = call i32 @test_case(i32 noundef 1, ptr noundef @.str.217, i32 noundef %37)
  %39 = icmp ne i32 %38, 0
  br i1 %39, label %40, label %60

40:                                               ; preds = %36
  %41 = call i32 @test_ptr_ne(ptr noundef @.str.24, i32 noundef 231, ptr noundef @.str.209, ptr noundef @.str.209, ptr noundef null, ptr noundef null)
  %42 = call i32 @test_case(i32 noundef 0, ptr noundef @.str.218, i32 noundef %41)
  %43 = icmp ne i32 %42, 0
  br i1 %43, label %44, label %60

44:                                               ; preds = %40
  %45 = call i32 @test_ptr_ne(ptr noundef @.str.24, i32 noundef 232, ptr noundef @.str.209, ptr noundef @.str.207, ptr noundef null, ptr noundef %3)
  %46 = call i32 @test_case(i32 noundef 1, ptr noundef @.str.219, i32 noundef %45)
  %47 = icmp ne i32 %46, 0
  br i1 %47, label %48, label %60

48:                                               ; preds = %44
  %49 = call i32 @test_ptr_ne(ptr noundef @.str.24, i32 noundef 233, ptr noundef @.str.207, ptr noundef @.str.209, ptr noundef %3, ptr noundef null)
  %50 = call i32 @test_case(i32 noundef 1, ptr noundef @.str.220, i32 noundef %49)
  %51 = icmp ne i32 %50, 0
  br i1 %51, label %52, label %60

52:                                               ; preds = %48
  %53 = call i32 @test_ptr_ne(ptr noundef @.str.24, i32 noundef 234, ptr noundef @.str.207, ptr noundef @.str.216, ptr noundef %3, ptr noundef %2)
  %54 = call i32 @test_case(i32 noundef 1, ptr noundef @.str.221, i32 noundef %53)
  %55 = icmp ne i32 %54, 0
  br i1 %55, label %56, label %60

56:                                               ; preds = %52
  %57 = call i32 @test_ptr_ne(ptr noundef @.str.24, i32 noundef 235, ptr noundef @.str.216, ptr noundef @.str.216, ptr noundef %2, ptr noundef %2)
  %58 = call i32 @test_case(i32 noundef 0, ptr noundef @.str.222, i32 noundef %57)
  %59 = icmp ne i32 %58, 0
  br i1 %59, label %61, label %60

60:                                               ; preds = %56, %52, %48, %44, %40, %36, %32, %28, %24, %20, %16, %12, %8, %0
  br label %62

61:                                               ; preds = %56
  store i32 1, ptr %1, align 4
  store i32 1, ptr %4, align 4
  br label %63

62:                                               ; preds = %60
  store i32 0, ptr %1, align 4
  store i32 1, ptr %4, align 4
  br label %63

63:                                               ; preds = %62, %61
  call void @llvm.lifetime.end.p0(i64 1, ptr %3) #7
  call void @llvm.lifetime.end.p0(i64 4, ptr %2) #7
  %64 = load i32, ptr %1, align 4
  ret i32 %64
}