; Function Attrs: nounwind uwtable
define internal range(i32 0, 2) i32 @test_pointer() #0 {
  %1 = alloca i32, align 4
  %2 = alloca i8, align 1
  call void @llvm.lifetime.start.p0(i64 4, ptr nonnull %1) #5
  store i32 0, ptr %1, align 4, !tbaa !9
  call void @llvm.lifetime.start.p0(i64 1, ptr nonnull %2) #5
  store i8 1, ptr %2, align 1, !tbaa !11
  %3 = call i32 @test_ptr(ptr noundef nonnull @.str.24, i32 noundef 222, ptr noundef nonnull @.str.207, ptr noundef nonnull %2) #5
  %.not.i = icmp eq i32 %3, 1
  br i1 %.not.i, label %test_case.exit, label %test_case.exit.thread

test_case.exit.thread:                            ; preds = %0
  %4 = load ptr, ptr @stderr, align 8, !tbaa !4
  %5 = call i32 (ptr, ptr, ...) @fprintf(ptr noundef %4, ptr noundef nonnull @.str.47, ptr noundef nonnull @.str.206, i32 noundef 1) #6
  br label %test_case.exit52

test_case.exit:                                   ; preds = %0
  %6 = call i32 @test_ptr(ptr noundef nonnull @.str.24, i32 noundef 223, ptr noundef nonnull @.str.209, ptr noundef null) #5
  %.not.i14 = icmp eq i32 %6, 0
  br i1 %.not.i14, label %test_case.exit16, label %test_case.exit16.thread

test_case.exit16.thread:                          ; preds = %test_case.exit
  %7 = load ptr, ptr @stderr, align 8, !tbaa !4
  %8 = call i32 (ptr, ptr, ...) @fprintf(ptr noundef %7, ptr noundef nonnull @.str.47, ptr noundef nonnull @.str.208, i32 noundef 0) #6
  br label %test_case.exit52

test_case.exit16:                                 ; preds = %test_case.exit
  %9 = call i32 @test_ptr_null(ptr noundef nonnull @.str.24, i32 noundef 224, ptr noundef nonnull @.str.207, ptr noundef nonnull %2) #5
  %.not.i17 = icmp eq i32 %9, 0
  br i1 %.not.i17, label %test_case.exit19, label %test_case.exit19.thread

test_case.exit19.thread:                          ; preds = %test_case.exit16
  %10 = load ptr, ptr @stderr, align 8, !tbaa !4
  %11 = call i32 (ptr, ptr, ...) @fprintf(ptr noundef %10, ptr noundef nonnull @.str.47, ptr noundef nonnull @.str.210, i32 noundef 0) #6
  br label %test_case.exit52

test_case.exit19:                                 ; preds = %test_case.exit16
  %12 = call i32 @test_ptr_null(ptr noundef nonnull @.str.24, i32 noundef 225, ptr noundef nonnull @.str.209, ptr noundef null) #5
  %.not.i20 = icmp eq i32 %12, 1
  br i1 %.not.i20, label %test_case.exit22, label %test_case.exit22.thread

test_case.exit22.thread:                          ; preds = %test_case.exit19
  %13 = load ptr, ptr @stderr, align 8, !tbaa !4
  %14 = call i32 (ptr, ptr, ...) @fprintf(ptr noundef %13, ptr noundef nonnull @.str.47, ptr noundef nonnull @.str.211, i32 noundef 1) #6
  br label %test_case.exit52

test_case.exit22:                                 ; preds = %test_case.exit19
  %15 = call i32 @test_ptr_eq(ptr noundef nonnull @.str.24, i32 noundef 226, ptr noundef nonnull @.str.209, ptr noundef nonnull @.str.209, ptr noundef null, ptr noundef null) #5
  %.not.i23 = icmp eq i32 %15, 1
  br i1 %.not.i23, label %test_case.exit25, label %test_case.exit25.thread

test_case.exit25.thread:                          ; preds = %test_case.exit22
  %16 = load ptr, ptr @stderr, align 8, !tbaa !4
  %17 = call i32 (ptr, ptr, ...) @fprintf(ptr noundef %16, ptr noundef nonnull @.str.47, ptr noundef nonnull @.str.212, i32 noundef 1) #6
  br label %test_case.exit52

test_case.exit25:                                 ; preds = %test_case.exit22
  %18 = call i32 @test_ptr_eq(ptr noundef nonnull @.str.24, i32 noundef 227, ptr noundef nonnull @.str.209, ptr noundef nonnull @.str.207, ptr noundef null, ptr noundef nonnull %2) #5
  %.not.i26 = icmp eq i32 %18, 0
  br i1 %.not.i26, label %test_case.exit28, label %test_case.exit28.thread

test_case.exit28.thread:                          ; preds = %test_case.exit25
  %19 = load ptr, ptr @stderr, align 8, !tbaa !4
  %20 = call i32 (ptr, ptr, ...) @fprintf(ptr noundef %19, ptr noundef nonnull @.str.47, ptr noundef nonnull @.str.213, i32 noundef 0) #6
  br label %test_case.exit52

test_case.exit28:                                 ; preds = %test_case.exit25
  %21 = call i32 @test_ptr_eq(ptr noundef nonnull @.str.24, i32 noundef 228, ptr noundef nonnull @.str.207, ptr noundef nonnull @.str.209, ptr noundef nonnull %2, ptr noundef null) #5
  %.not.i29 = icmp eq i32 %21, 0
  br i1 %.not.i29, label %test_case.exit31, label %test_case.exit31.thread

test_case.exit31.thread:                          ; preds = %test_case.exit28
  %22 = load ptr, ptr @stderr, align 8, !tbaa !4
  %23 = call i32 (ptr, ptr, ...) @fprintf(ptr noundef %22, ptr noundef nonnull @.str.47, ptr noundef nonnull @.str.214, i32 noundef 0) #6
  br label %test_case.exit52

test_case.exit31:                                 ; preds = %test_case.exit28
  %24 = call i32 @test_ptr_eq(ptr noundef nonnull @.str.24, i32 noundef 229, ptr noundef nonnull @.str.207, ptr noundef nonnull @.str.216, ptr noundef nonnull %2, ptr noundef nonnull %1) #5
  %.not.i32 = icmp eq i32 %24, 0
  br i1 %.not.i32, label %test_case.exit34, label %test_case.exit34.thread

test_case.exit34.thread:                          ; preds = %test_case.exit31
  %25 = load ptr, ptr @stderr, align 8, !tbaa !4
  %26 = call i32 (ptr, ptr, ...) @fprintf(ptr noundef %25, ptr noundef nonnull @.str.47, ptr noundef nonnull @.str.215, i32 noundef 0) #6
  br label %test_case.exit52

test_case.exit34:                                 ; preds = %test_case.exit31
  %27 = call i32 @test_ptr_eq(ptr noundef nonnull @.str.24, i32 noundef 230, ptr noundef nonnull @.str.216, ptr noundef nonnull @.str.216, ptr noundef nonnull %1, ptr noundef nonnull %1) #5
  %.not.i35 = icmp eq i32 %27, 1
  br i1 %.not.i35, label %test_case.exit37, label %test_case.exit37.thread

test_case.exit37.thread:                          ; preds = %test_case.exit34
  %28 = load ptr, ptr @stderr, align 8, !tbaa !4
  %29 = call i32 (ptr, ptr, ...) @fprintf(ptr noundef %28, ptr noundef nonnull @.str.47, ptr noundef nonnull @.str.217, i32 noundef 1) #6
  br label %test_case.exit52

test_case.exit37:                                 ; preds = %test_case.exit34
  %30 = call i32 @test_ptr_ne(ptr noundef nonnull @.str.24, i32 noundef 231, ptr noundef nonnull @.str.209, ptr noundef nonnull @.str.209, ptr noundef null, ptr noundef null) #5
  %.not.i38 = icmp eq i32 %30, 0
  br i1 %.not.i38, label %test_case.exit40, label %test_case.exit40.thread

test_case.exit40.thread:                          ; preds = %test_case.exit37
  %31 = load ptr, ptr @stderr, align 8, !tbaa !4
  %32 = call i32 (ptr, ptr, ...) @fprintf(ptr noundef %31, ptr noundef nonnull @.str.47, ptr noundef nonnull @.str.218, i32 noundef 0) #6
  br label %test_case.exit52

test_case.exit40:                                 ; preds = %test_case.exit37
  %33 = call i32 @test_ptr_ne(ptr noundef nonnull @.str.24, i32 noundef 232, ptr noundef nonnull @.str.209, ptr noundef nonnull @.str.207, ptr noundef null, ptr noundef nonnull %2) #5
  %.not.i41 = icmp eq i32 %33, 1
  br i1 %.not.i41, label %test_case.exit43, label %test_case.exit43.thread

test_case.exit43.thread:                          ; preds = %test_case.exit40
  %34 = load ptr, ptr @stderr, align 8, !tbaa !4
  %35 = call i32 (ptr, ptr, ...) @fprintf(ptr noundef %34, ptr noundef nonnull @.str.47, ptr noundef nonnull @.str.219, i32 noundef 1) #6
  br label %test_case.exit52

test_case.exit43:                                 ; preds = %test_case.exit40
  %36 = call i32 @test_ptr_ne(ptr noundef nonnull @.str.24, i32 noundef 233, ptr noundef nonnull @.str.207, ptr noundef nonnull @.str.209, ptr noundef nonnull %2, ptr noundef null) #5
  %.not.i44 = icmp eq i32 %36, 1
  br i1 %.not.i44, label %test_case.exit46, label %test_case.exit46.thread

test_case.exit46.thread:                          ; preds = %test_case.exit43
  %37 = load ptr, ptr @stderr, align 8, !tbaa !4
  %38 = call i32 (ptr, ptr, ...) @fprintf(ptr noundef %37, ptr noundef nonnull @.str.47, ptr noundef nonnull @.str.220, i32 noundef 1) #6
  br label %test_case.exit52

test_case.exit46:                                 ; preds = %test_case.exit43
  %39 = call i32 @test_ptr_ne(ptr noundef nonnull @.str.24, i32 noundef 234, ptr noundef nonnull @.str.207, ptr noundef nonnull @.str.216, ptr noundef nonnull %2, ptr noundef nonnull %1) #5
  %.not.i47 = icmp eq i32 %39, 1
  br i1 %.not.i47, label %test_case.exit49, label %test_case.exit49.thread

test_case.exit49.thread:                          ; preds = %test_case.exit46
  %40 = load ptr, ptr @stderr, align 8, !tbaa !4
  %41 = call i32 (ptr, ptr, ...) @fprintf(ptr noundef %40, ptr noundef nonnull @.str.47, ptr noundef nonnull @.str.221, i32 noundef 1) #6
  br label %test_case.exit52

test_case.exit49:                                 ; preds = %test_case.exit46
  %42 = call i32 @test_ptr_ne(ptr noundef nonnull @.str.24, i32 noundef 235, ptr noundef nonnull @.str.216, ptr noundef nonnull @.str.216, ptr noundef nonnull %1, ptr noundef nonnull %1) #5
  %.not.i50 = icmp eq i32 %42, 0
  br i1 %.not.i50, label %test_case.exit52, label %test_case.exit52.thread

test_case.exit52.thread:                          ; preds = %test_case.exit49
  %43 = load ptr, ptr @stderr, align 8, !tbaa !4
  %44 = call i32 (ptr, ptr, ...) @fprintf(ptr noundef %43, ptr noundef nonnull @.str.47, ptr noundef nonnull @.str.222, i32 noundef 0) #6
  br label %test_case.exit52

test_case.exit52:                                 ; preds = %test_case.exit.thread, %test_case.exit16.thread, %test_case.exit19.thread, %test_case.exit22.thread, %test_case.exit25.thread, %test_case.exit28.thread, %test_case.exit31.thread, %test_case.exit34.thread, %test_case.exit37.thread, %test_case.exit40.thread, %test_case.exit43.thread, %test_case.exit46.thread, %test_case.exit49.thread, %test_case.exit52.thread, %test_case.exit49
  %.0 = phi i32 [ 1, %test_case.exit49 ], [ 0, %test_case.exit52.thread ], [ 0, %test_case.exit49.thread ], [ 0, %test_case.exit46.thread ], [ 0, %test_case.exit43.thread ], [ 0, %test_case.exit40.thread ], [ 0, %test_case.exit37.thread ], [ 0, %test_case.exit34.thread ], [ 0, %test_case.exit31.thread ], [ 0, %test_case.exit28.thread ], [ 0, %test_case.exit25.thread ], [ 0, %test_case.exit22.thread ], [ 0, %test_case.exit19.thread ], [ 0, %test_case.exit16.thread ], [ 0, %test_case.exit.thread ]
  call void @llvm.lifetime.end.p0(i64 1, ptr nonnull %2) #5
  call void @llvm.lifetime.end.p0(i64 4, ptr nonnull %1) #5
  ret i32 %.0
}